(lp1
(S"'"
S"''"
p2
tp3
a(S'you'
p4
S'mind'
p5
tp6
a(S'``'
p7
S'Thanks'
p8
tp9
a(S'that'
p10
S"'s"
p11
tp12
a(S'a'
S'bit'
p13
tp14
a(S'Hey'
p15
S','
tp16
a(S'to'
p17
S'help'
p18
tp19
a(S'to'
p20
S'you'
p21
tp22
a(S'link'
p23
S'to'
p24
tp25
a(S'have'
p26
S'been'
p27
tp28
a(S'with'
p29
S'the'
p30
tp31
a(S'you'
p32
S'know'
p33
tp34
a(S'did'
p35
S'you'
p36
tp37
a(S'to'
p38
S'be'
p39
tp40
a(S'that'
p41
S'I'
tp42
a(S'the'
p43
S'article'
p44
tp45
a(S'I'
S'am'
p46
tp47
a(S'that'
p48
S'?'
tp49
a(S','
S'can'
p50
tp51
a(S'?'
S'?'
tp52
a(S'article'
p53
S','
tp54
a(S"''"
p55
S'?'
tp56
a(S'you'
p57
S'do'
p58
tp59
a(S'at'
p60
S'<'
tp61
a(S'you'
p62
S'did'
p63
tp64
a(S','
S'or'
p65
tp66
a(S'``'
p67
g15
tp68
a(S'of'
p69
S'the'
p70
tp71
a(S'``'
p72
S'The'
p73
tp74
a(S'the'
p75
S'talk'
p76
tp77
a(S'this'
p78
S'article'
p79
tp80
a(S'is'
p81
S"n't"
p82
tp83
a(S'for'
p84
S'a'
tp85
a(S"'m"
p86
S'not'
p87
tp88
a(S'in'
p89
S'<'
tp90
a(S'seem'
p91
S'to'
p92
tp93
a(S'?'
S"''"
p94
tp95
a(S':'
S')'
tp96
a(S','
S'as'
p97
tp98
a(S'>'
S','
tp99
a(S'>'
S'?'
tp100
a(S'you'
p101
S'please'
p102
tp103
a(S'you'
p104
S'help'
p105
tp106
a(S'be'
p107
S'able'
p108
tp109
a(S"'s"
p110
S'the'
p111
tp112
a(S'about'
p113
S'the'
p114
tp115
a(S'work'
p116
S'on'
p117
tp118
a(S')'
S','
tp119
a(S','
S'please'
p120
tp121
a(S'did'
p122
S"n't"
p123
tp124
a(S'Can'
p125
S'you'
p126
tp127
a(S'url'
p128
S'>'
tp129
a(S'I'
S'know'
p130
tp131
a(S'the'
p132
S'<'
tp133
a(S'a'
S'little'
p134
tp135
a(S'like'
p136
S'to'
p137
tp138
a(S'you'
p139
S'have'
p140
tp141
a(S"''"
p142
S'and'
p143
tp144
a(S'If'
p145
S'you'
p146
tp147
a(S'to'
p148
S'<'
tp149
a(S'have'
p150
S'you'
p151
tp152
a(S'is'
p153
S'that'
p154
tp155
a(S','
g10
tp156
a(S'to'
p157
S'make'
p158
tp159
a(S'would'
p160
S'you'
p161
tp162
a(S'you'
p163
S'like'
p164
tp165
a(S','
S'if'
p166
tp167
a(S'to'
p168
g132
tp169
a(S'thanks'
p170
S'for'
p171
tp172
a(S'you'
p173
S'be'
p174
tp175
a(S'on'
p176
S'my'
p177
tp178
a(S','
S'why'
p179
tp180
a(S'with'
p181
S'a'
tp182
a(S'me'
p183
S'?'
tp184
a(S'with'
p185
S'you'
p186
tp187
a(S'it'
p188
S','
tp189
a(S'Is'
p190
S'it'
p191
tp192
a(S'Could'
p193
S'you'
p194
tp195
a(S'I'
S'think'
p196
tp197
a(S','
S'so'
p198
tp199
a(S'want'
p200
S'to'
p201
tp202
a(S'Thank'
p203
S'you'
p204
tp205
a(S'ca'
p206
S"n't"
p207
tp208
a(S'<'
S'person'
p209
tp210
a(S'Would'
p211
g173
tp212
a(S'article'
p213
S'.'
tp214
a(S'of'
p215
S'a'
tp216
a(S'if'
p217
S'I'
tp218
a(S'on'
p219
S'your'
p220
tp221
a(S'``'
p222
S'Hello'
p223
tp224
a(S','
S'but'
p225
tp226
a(S'it'
p227
S'would'
p228
tp229
a(S'>'
S'is'
p230
tp231
a(S'I'
S'did'
p232
tp233
a(g209
S'>'
tp234
a(S'a'
S'look'
p235
tp236
a(S'it'
p237
S'was'
p238
tp239
a(S'and'
p240
S'I'
tp241
a(S'What'
p242
S'do'
p243
tp244
a(S'I'
S'see'
p245
tp246
a(S"''"
p247
S','
tp248
a(S','
S'not'
p249
tp250
a(S'is'
p251
S'not'
p252
tp253
a(S'you'
p254
S'are'
p255
tp256
a(S'>'
g148
tp257
a(S','
S'the'
p258
tp259
a(S'>'
S'and'
p260
tp261
a(S'I'
S'do'
p262
tp263
a(S'a'
S'<'
tp264
a(S'do'
p265
g163
tp266
a(g186
S'?'
tp267
a(g260
S'<'
tp268
a(S','
S'what'
p269
tp270
a(S'tell'
p271
S'me'
p272
tp273
a(S'of'
p274
S'<'
tp275
a(S'What'
p276
g110
tp277
a(S'What'
p278
S'is'
p279
tp280
a(S'on'
p281
S'the'
p282
tp283
a(S'``'
p284
S'Hi'
p285
tp286
a(S'I'
S'noticed'
p287
tp288
a(S'is'
p289
S'it'
p290
tp291
a(S'need'
p292
S'to'
p293
tp294
a(S','
S'you'
p295
tp296
a(S'and'
p297
S'the'
p298
tp299
a(S'is'
p300
S'the'
p301
tp302
a(S'that'
p303
S'the'
p304
tp305
a(S'that'
p306
S'it'
p307
tp308
a(S'I'
S'will'
p309
tp310
a(S'the'
p311
S'way'
p312
tp313
a(S'``'
p314
S"''"
p315
tp316
a(g262
S"n't"
p317
tp318
a(S'.'
S"''"
p319
tp320
a(S'page'
p321
S','
tp322
a(S'this'
p323
S'?'
tp324
a(S'if'
p325
g237
tp326
a(S"'s"
p327
S'a'
tp328
a(S'on'
p329
S'<'
tp330
a(S'I'
S"'ve"
p331
tp332
a(S'I'
S'just'
p333
tp334
a(S')'
S'?'
tp335
a(S'page'
p336
S'?'
tp337
a(S'to'
p338
S'do'
p339
tp340
a(S"''"
p341
S'.'
tp342
a(S'a'
S'lot'
p343
tp344
a(S'>'
S'.'
tp345
a(S'for'
p346
S'your'
p347
tp348
a(g204
S'for'
p349
tp350
a(S'in'
p351
S'the'
p352
tp353
a(S'the'
p354
S'``'
p355
tp356
a(S'that'
p357
g254
tp358
a(S'Did'
p359
S'you'
p360
tp361
a(S'it'
p362
S'to'
p363
tp364
a(S'page'
p365
S'.'
tp366
a(S'you'
p367
S"'re"
p368
tp369
a(S'willing'
p370
S'to'
p371
tp372
a(S'you'
p373
S'can'
p374
tp375
a(S'have'
p376
S'any'
p377
tp378
a(S'I'
S'was'
p379
tp380
a(S'talk'
p381
g321
tp382
a(S'in'
p383
S'your'
p384
tp385
a(S'it'
p386
S'.'
tp387
a(S'you'
p388
S'think'
p389
tp390
a(S'it'
p391
S'?'
tp392
a(S'seems'
p393
S'to'
p394
tp395
a(S'to'
p396
S'me'
p397
tp398
a(S'would'
p399
g107
tp400
a(S'if'
p401
S'you'
p402
tp403
a(S'it'
p404
S'be'
p405
tp406
a(S'me'
p407
S'.'
tp408
a(S','
S'is'
p409
tp410
a(g108
S'to'
p411
tp412
a(g50
S'you'
p413
tp414
a(S'me'
p415
S'to'
p416
tp417
a(S','
S'I'
tp418
a(S','
S'which'
p419
tp420
a(S'going'
p421
S'to'
p422
tp423
a(S'you'
p424
S'.'
tp425
a(S'Is'
p426
S'there'
p427
tp428
a(S"''"
p429
S"''"
p430
tp431
a(g389
S'that'
p432
tp433
a(S'interested'
p434
S'in'
p435
tp436
a(S'to'
p437
S'get'
p438
tp439
a(S'I'
S"'m"
p440
tp441
a(S'have'
p442
S'a'
tp443
a(S'an'
p444
S'article'
p445
tp446
a(S'``'
p447
S'You'
p448
tp449
a(S'this'
p450
S'is'
p451
tp452
a(g427
S'any'
p453
tp454
a(S'for'
p455
S'the'
p456
tp457
a(S'from'
p458
S'the'
p459
tp460
a(S'take'
p461
S'a'
tp462
a(S'have'
p463
S'to'
p464
tp465
a(S','
S'could'
p466
tp467
a(S'have'
p468
S"n't"
p469
tp470
a(S'be'
p471
S'a'
tp472
a(S'I'
S'had'
p473
tp474
a(S'does'
p475
S"n't"
p476
tp477
a(S'but'
p478
S'I'
tp479
a(S'I'
S'can'
p480
tp481
a(S'trying'
p482
S'to'
p483
tp484
a(S'Why'
p485
S'did'
p486
tp487
a(S','
S'thanks'
p488
tp489
a(g363
S'a'
tp490
a(S'should'
p491
S'be'
p492
tp493
a(S'you'
p494
S'could'
p495
tp496
a(S'Hi'
p497
S','
tp498
a(S"''"
p499
S"'"
tp500
a(S'at'
p501
S'the'
p502
tp503
a(S'Thanks'
p504
g455
tp505
a(S'think'
p506
S'it'
p507
tp508
a(g466
g101
tp509
a(g120
S'?'
tp510
a(S'as'
p511
S'well'
p512
tp513
a(S'it'
p514
S"'s"
p515
tp516
a(S'to'
p517
S'have'
p518
tp519
a(S"n't"
p520
S'you'
p521
tp522
a(S','
S'and'
p523
tp524
a(S'you'
p525
S'mean'
p526
tp527
a(S'think'
p528
S'?'
tp529
a(S'you'
p530
S'want'
p531
tp532
a(S"'d"
p533
S'like'
p534
tp535
a(S'the'
p536
S'page'
p537
tp538
a(S'are'
p539
S'you'
p540
tp541
a(S'Are'
p542
S'you'
p543
tp544
a(S'<'
g128
tp545
a(S'as'
p546
S'a'
tp547
a(S'Is'
p548
S'that'
p549
tp550
a(S'I'
S'have'
p551
tp552
a(S'you'
p553
S"'ve"
p554
tp555
a(S')'
S'.'
tp556
a(S'is'
p557
S'a'
tp558
a(S'``'
p559
S'I'
tp560
a(S'article'
p561
S'?'
tp562
a(S'of'
p563
S'this'
p564
tp565
a(S','
S'it'
p566
tp567
a(S'what'
p568
S'you'
p569
tp570
a(S'to'
p571
S'take'
p572
tp573
a(S'the'
p574
S'same'
p575
tp576
a(g245
S'you'
p577
tp578
a(S'look'
p579
S'at'
p580
tp581
a(S'I'
S"'d"
p582
tp583
a(S','
g160
tp584
a(S'it'
p585
S'is'
p586
tp587
a(S'I'
S'would'
p588
tp589
a(S'Do'
p590
g139
tp591
a(S'help'
p592
S'?'
tp593
a.